; Function Attrs: nounwind uwtable
define i32 @messageGetMimeType(ptr noundef readonly %0) local_unnamed_addr #2 {
  %2 = icmp eq ptr %0, null
  br i1 %2, label %3, label %4

3:                                                ; preds = %1
  tail call void (ptr, ...) @cli_errmsg(ptr noundef nonnull @.str.10) #21
  br label %7

4:                                                ; preds = %1
  %5 = getelementptr inbounds i8, ptr %0, i64 8
  %6 = load i32, ptr %5, align 8
  br label %7

7:                                                ; preds = %4, %3
  %.0 = phi i32 [ 0, %3 ], [ %6, %4 ]
  ret i32 %.0
}